; Function Attrs: mustprogress nounwind uwtable
define hidden noundef zeroext i1 @_ZN17CompilationPolicy16must_be_compiledERK12methodHandlei(ptr nocapture noundef nonnull readonly align 8 dereferenceable(16) %0, i32 noundef %1) local_unnamed_addr #0 align 2 {
  %3 = load i8, ptr @ReplayCompiles, align 1
  %4 = trunc i8 %3 to i1
  br i1 %4, label %_ZN13CompileBroker23should_compile_new_jobsEv.exit, label %5

5:                                                ; preds = %2
  %6 = load ptr, ptr %0, align 8
  %7 = getelementptr inbounds i8, ptr %6, i64 72
  %8 = load volatile ptr, ptr %7, align 8
  tail call void asm sideeffect "", "~{memory},~{dirflag},~{fpsr},~{flags}"() #12, !srcloc !6
  %.not = icmp eq ptr %8, null
  br i1 %.not, label %9, label %_ZN13CompileBroker23should_compile_new_jobsEv.exit

9:                                                ; preds = %5
  %10 = tail call noundef zeroext i1 @_ZN17CompilationPolicy15can_be_compiledERK12methodHandlei(ptr noundef nonnull align 8 dereferenceable(16) %0, i32 noundef %1)
  br i1 %10, label %11, label %_ZN13CompileBroker23should_compile_new_jobsEv.exit

11:                                               ; preds = %9
  %12 = load i8, ptr @UseInterpreter, align 1
  %13 = trunc i8 %12 to i1
  br i1 %13, label %14, label %_ZN13CompileBroker23should_compile_new_jobsEv.exit

14:                                               ; preds = %11
  %15 = load i8, ptr @AlwaysCompileLoopMethods, align 1
  %16 = trunc i8 %15 to i1
  br i1 %16, label %17, label %_ZN13CompileBroker23should_compile_new_jobsEv.exit

17:                                               ; preds = %14
  %18 = load ptr, ptr %0, align 8
  %19 = getelementptr inbounds i8, ptr %18, i64 48
  %20 = load i32, ptr %19, align 4
  %21 = and i32 %20, 16384
  %.not.i = icmp eq i32 %21, 0
  br i1 %.not.i, label %_ZN6Method9has_loopsEv.exit, label %22

22:                                               ; preds = %17
  %23 = and i32 %20, 8192
  %.not4 = icmp eq i32 %23, 0
  br i1 %.not4, label %_ZN13CompileBroker23should_compile_new_jobsEv.exit, label %25

_ZN6Method9has_loopsEv.exit:                      ; preds = %17
  %24 = tail call noundef zeroext i1 @_ZN6Method22compute_has_loops_flagEv(ptr noundef nonnull align 8 dereferenceable(88) %18) #12
  br i1 %24, label %25, label %_ZN13CompileBroker23should_compile_new_jobsEv.exit

25:                                               ; preds = %22, %_ZN6Method9has_loopsEv.exit
  %26 = load i8, ptr @UseCompiler, align 1
  %27 = trunc i8 %26 to i1
  br i1 %27, label %28, label %_ZN13CompileBroker23should_compile_new_jobsEv.exit

28:                                               ; preds = %25
  %29 = load volatile i32, ptr @_ZN13CompileBroker24_should_compile_new_jobsE, align 4
  %30 = icmp eq i32 %29, 1
  br label %_ZN13CompileBroker23should_compile_new_jobsEv.exit

_ZN13CompileBroker23should_compile_new_jobsEv.exit: ; preds = %28, %25, %22, %11, %_ZN6Method9has_loopsEv.exit, %14, %9, %5, %2
  %.0 = phi i1 [ false, %2 ], [ false, %5 ], [ false, %9 ], [ true, %11 ], [ false, %_ZN6Method9has_loopsEv.exit ], [ false, %14 ], [ false, %22 ], [ false, %25 ], [ %30, %28 ]
  ret i1 %.0
}